Certificate:
    Data:
        Version: 1 (0x0)
        Serial Number: 2 (0x2)
        Signature Algorithm: dsa_with_SHA256
        Issuer: emailAddress=noreply@simplesamlphp.org, CN=SimpleSAMLphp Testing CA, O=SimpleSAMLphp HQ, L=Honolulu, ST=Hawaii, C=US
        Validity
            Not Before: Jun 21 22:18:03 2020 GMT
            Not After : May 28 22:18:03 2120 GMT
        Subject: 
        Subject Public Key Info:
            Public Key Algorithm: dsaEncryption
                pub: 
                    00:95:16:73:95:49:08:e3:85:7d:5a:a2:19:5e:18:
                    4c:58:2d:f2:1a:84:bb:85:05:30:67:ab:5c:98:94:
                    98:2c:bb:83:c0:b4:3b:dd:e1:58:ec:63:be:99:15:
                    5a:a3:43:ab:52:c5:20:96:ea:10:99:e0:c0:28:72:
                    5d:cf:e5:83:40:d6:b2:90:0d:45:22:f2:56:0c:0b:
                    6b:28:91:7f:cd:3d:e3:d5:c3:d7:1d:3e:39:f8:11:
                    0c:db:4f:26:9d:92:d3:c7:68:ed:92:d5:d4:0e:21:
                    5c:5d:43:9d:a3:4b:2c:b3:45:e2:73:1d:25:87:53:
                    21:18:76:8b:6a:3d:e3:32:e2
                P:   
                    00:97:fe:ac:b8:40:8c:f8:d5:2e:f2:91:1f:d9:a5:
                    e9:ef:fb:db:7c:8c:ad:f7:f3:ff:a2:ff:53:64:e7:
                    cc:c8:89:0c:69:24:d6:4e:ca:43:d4:a9:61:3f:d5:
                    42:f3:6e:68:8c:e8:fb:92:37:cd:d7:d5:08:b1:b1:
                    17:b0:10:c4:af:f7:22:de:4d:24:90:2d:5e:fe:29:
                    d9:4e:d8:5a:98:35:d0:a3:5a:c4:16:6b:be:18:72:
                    70:83:c4:09:3a:ba:d6:1c:28:71:26:ab:2e:99:6e:
                    ce:18:07:55:4f:69:8d:18:cc:e6:9c:05:06:0a:f3:
                    f7:81:31:8c:e6:27:68:49:e1
                Q:   
                    00:dc:78:98:85:85:2e:21:a6:88:d5:5a:75:26:2c:
                    e8:1c:0a:17:f8:6f
                G:   
                    25:bc:ee:a3:5e:70:72:46:1a:4f:d4:9e:92:ff:42:
                    12:4a:9d:e1:29:41:2b:cf:3b:11:00:e0:39:86:a7:
                    98:5e:87:c9:97:e7:12:c2:06:05:93:31:ad:a3:6f:
                    99:49:c9:31:ce:c9:0f:de:a1:ca:e9:9e:df:5b:9a:
                    66:a5:35:49:e5:f0:dc:a5:4e:fd:f5:2c:e7:99:05:
                    53:53:13:c5:7b:40:ee:19:a9:65:47:ac:e8:80:93:
                    04:17:56:9d:68:38:85:34:fb:f6:06:ed:97:1a:15:
                    31:5c:ad:37:cb:1e:02:58:30:3a:13:45:47:06:f0:
                    4a:9f:35:a4:7f:7b:41:43
    Signature Algorithm: dsa_with_SHA256
         r:   
             7c:73:c4:bf:39:d0:a3:d1:18:aa:28:8b:0c:8f:d0:
             c7:eb:92:dc:f4
         s:   
             00:92:69:f1:2d:4f:42:bb:c9:1f:23:30:54:14:64:
             01:72:18:93:21:dc
-----BEGIN CERTIFICATE-----
MIICzjCCAosCAQIwCwYJYIZIAWUDBAMCMIGZMSgwJgYJKoZIhvcNAQkBFhlub3Jl
cGx5QHNpbXBsZXNhbWxwaHAub3JnMSEwHwYDVQQDDBhTaW1wbGVTQU1McGhwIFRl
c3RpbmcgQ0ExGTAXBgNVBAoMEFNpbXBsZVNBTUxwaHAgSFExETAPBgNVBAcMCEhv
bm9sdWx1MQ8wDQYDVQQIDAZIYXdhaWkxCzAJBgNVBAYTAlVTMCAXDTIwMDYyMTIy
MTgwM1oYDzIxMjAwNTI4MjIxODAzWjAAMIIBtzCCASsGByqGSM44BAEwggEeAoGB
AJf+rLhAjPjVLvKRH9ml6e/723yMrffz/6L/U2TnzMiJDGkk1k7KQ9SpYT/VQvNu
aIzo+5I3zdfVCLGxF7AQxK/3It5NJJAtXv4p2U7YWpg10KNaxBZrvhhycIPECTq6
1hwocSarLpluzhgHVU9pjRjM5pwFBgrz94ExjOYnaEnhAhUA3HiYhYUuIaaI1Vp1
JizoHAoX+G8CgYAlvO6jXnByRhpP1J6S/0ISSp3hKUErzzsRAOA5hqeYXofJl+cS
wgYFkzGto2+ZSckxzskP3qHK6Z7fW5pmpTVJ5fDcpU799SznmQVTUxPFe0DuGall
R6zogJMEF1adaDiFNPv2Bu2XGhUxXK03yx4CWDA6E0VHBvBKnzWkf3tBQwOBhQAC
gYEAlRZzlUkI44V9WqIZXhhMWC3yGoS7hQUwZ6tcmJSYLLuDwLQ73eFY7GO+mRVa
o0OrUsUgluoQmeDAKHJdz+WDQNaykA1FIvJWDAtrKJF/zT3j1cPXHT45+BEM208m
nZLTx2jtktXUDiFcXUOdo0sss0Xicx0lh1MhGHaLaj3jMuIwCwYJYIZIAWUDBAMC
AzAAMC0CFHxzxL850KPRGKooiwyP0Mfrktz0AhUAkmnxLU9Cu8kfIzBUFGQBchiT
Idw=
-----END CERTIFICATE-----
