Certificate:
    Data:
        Version: 1 (0x0)
        Serial Number: 1 (0x1)
        Signature Algorithm: dsa_with_SHA256
        Issuer: emailAddress=noreply@simplesamlphp.org, CN=SimpleSAMLphp Testing CA, O=SimpleSAMLphp HQ, L=Honolulu, ST=Hawaii, C=US
        Validity
            Not Before: Jun 21 22:18:03 2020 GMT
            Not After : May 28 22:18:03 2120 GMT
        Subject: 
        Subject Public Key Info:
            Public Key Algorithm: dsaEncryption
                pub: 
                    0c:ae:e1:4f:83:66:11:fc:b5:16:be:29:0b:9c:68:
                    58:8a:88:dc:1e:f1:b1:34:21:36:5d:b5:5d:da:86:
                    2c:c2:63:d1:6b:59:c4:5f:4d:30:92:04:c0:12:64:
                    e7:57:52:f8:f1:25:2d:97:17:0f:91:2e:2c:e5:c2:
                    39:87:53:36:2e:5c:75:6c:39:d3:52:d2:c4:b3:3b:
                    c7:af:7f:0c:93:95:c3:4c:28:4c:ae:ba:89:e9:4d:
                    10:e3:b8:07:6a:21:1b:85:ff:2d:54:af:40:7f:ba:
                    5f:78:ca:9e:80:83:98:50:97:96:ea:8f:f9:5b:92:
                    09:0c:aa:03:95:a1:28:d3
                P:   
                    00:97:fe:ac:b8:40:8c:f8:d5:2e:f2:91:1f:d9:a5:
                    e9:ef:fb:db:7c:8c:ad:f7:f3:ff:a2:ff:53:64:e7:
                    cc:c8:89:0c:69:24:d6:4e:ca:43:d4:a9:61:3f:d5:
                    42:f3:6e:68:8c:e8:fb:92:37:cd:d7:d5:08:b1:b1:
                    17:b0:10:c4:af:f7:22:de:4d:24:90:2d:5e:fe:29:
                    d9:4e:d8:5a:98:35:d0:a3:5a:c4:16:6b:be:18:72:
                    70:83:c4:09:3a:ba:d6:1c:28:71:26:ab:2e:99:6e:
                    ce:18:07:55:4f:69:8d:18:cc:e6:9c:05:06:0a:f3:
                    f7:81:31:8c:e6:27:68:49:e1
                Q:   
                    00:dc:78:98:85:85:2e:21:a6:88:d5:5a:75:26:2c:
                    e8:1c:0a:17:f8:6f
                G:   
                    25:bc:ee:a3:5e:70:72:46:1a:4f:d4:9e:92:ff:42:
                    12:4a:9d:e1:29:41:2b:cf:3b:11:00:e0:39:86:a7:
                    98:5e:87:c9:97:e7:12:c2:06:05:93:31:ad:a3:6f:
                    99:49:c9:31:ce:c9:0f:de:a1:ca:e9:9e:df:5b:9a:
                    66:a5:35:49:e5:f0:dc:a5:4e:fd:f5:2c:e7:99:05:
                    53:53:13:c5:7b:40:ee:19:a9:65:47:ac:e8:80:93:
                    04:17:56:9d:68:38:85:34:fb:f6:06:ed:97:1a:15:
                    31:5c:ad:37:cb:1e:02:58:30:3a:13:45:47:06:f0:
                    4a:9f:35:a4:7f:7b:41:43
    Signature Algorithm: dsa_with_SHA256
         r:   
             59:bc:31:e1:2e:f9:26:1b:dd:f3:45:64:b1:7e:45:
             39:22:9f:c6:1f
         s:   
             00:d8:41:c5:a7:29:b5:3e:57:09:fd:17:4e:79:58:
             21:b5:3f:cd:48:86
-----BEGIN CERTIFICATE-----
MIICzTCCAooCAQEwCwYJYIZIAWUDBAMCMIGZMSgwJgYJKoZIhvcNAQkBFhlub3Jl
cGx5QHNpbXBsZXNhbWxwaHAub3JnMSEwHwYDVQQDDBhTaW1wbGVTQU1McGhwIFRl
c3RpbmcgQ0ExGTAXBgNVBAoMEFNpbXBsZVNBTUxwaHAgSFExETAPBgNVBAcMCEhv
bm9sdWx1MQ8wDQYDVQQIDAZIYXdhaWkxCzAJBgNVBAYTAlVTMCAXDTIwMDYyMTIy
MTgwM1oYDzIxMjAwNTI4MjIxODAzWjAAMIIBtjCCASsGByqGSM44BAEwggEeAoGB
AJf+rLhAjPjVLvKRH9ml6e/723yMrffz/6L/U2TnzMiJDGkk1k7KQ9SpYT/VQvNu
aIzo+5I3zdfVCLGxF7AQxK/3It5NJJAtXv4p2U7YWpg10KNaxBZrvhhycIPECTq6
1hwocSarLpluzhgHVU9pjRjM5pwFBgrz94ExjOYnaEnhAhUA3HiYhYUuIaaI1Vp1
JizoHAoX+G8CgYAlvO6jXnByRhpP1J6S/0ISSp3hKUErzzsRAOA5hqeYXofJl+cS
wgYFkzGto2+ZSckxzskP3qHK6Z7fW5pmpTVJ5fDcpU799SznmQVTUxPFe0DuGall
R6zogJMEF1adaDiFNPv2Bu2XGhUxXK03yx4CWDA6E0VHBvBKnzWkf3tBQwOBhAAC
gYAMruFPg2YR/LUWvikLnGhYiojcHvGxNCE2XbVd2oYswmPRa1nEX00wkgTAEmTn
V1L48SUtlxcPkS4s5cI5h1M2Llx1bDnTUtLEszvHr38Mk5XDTChMrrqJ6U0Q47gH
aiEbhf8tVK9Af7pfeMqegIOYUJeW6o/5W5IJDKoDlaEo0zALBglghkgBZQMEAwID
MAAwLQIUWbwx4S75Jhvd80VksX5FOSKfxh8CFQDYQcWnKbU+Vwn9F055WCG1P81I
hg==
-----END CERTIFICATE-----
